ARM GAS  C:\Users\danaukes\AppData\Local\Temp\ccOIoM8j.s 			page 1


   1              		.syntax unified
   2              		.cpu cortex-m3
   3              		.fpu softvfp
   4              		.eabi_attribute 20, 1
   5              		.eabi_attribute 21, 1
   6              		.eabi_attribute 23, 3
   7              		.eabi_attribute 24, 1
   8              		.eabi_attribute 25, 1
   9              		.eabi_attribute 26, 1
  10              		.eabi_attribute 30, 1
  11              		.eabi_attribute 34, 1
  12              		.eabi_attribute 18, 4
  13              		.thumb
  14              		.syntax unified
  15              		.file	"main.c"
  16              		.text
  17              	.Ltext0:
  18              		.cfi_sections	.debug_frame
  19              		.global	__aeabi_ui2f
  20              		.global	__aeabi_fdiv
  21              		.global	__aeabi_f2d
  22              		.global	__aeabi_dmul
  23              		.global	__aeabi_dadd
  24              		.global	__aeabi_d2iz
  25              		.global	__aeabi_d2f
  26              		.global	__aeabi_ddiv
  27              		.global	__aeabi_fmul
  28              		.section	.text.main,"ax",%progbits
  29              		.align	2
  30              		.global	main
  31              		.thumb
  32              		.thumb_func
  33              		.type	main, %function
  34              	main:
  35              	.LFB64:
  36              		.file 1 "main.c"
   1:main.c        **** /* ========================================
   2:main.c        ****  *
   3:main.c        ****  * Copyright YOUR COMPANY, THE YEAR
   4:main.c        ****  * All Rights Reserved
   5:main.c        ****  * UNPUBLISHED, LICENSED SOFTWARE.
   6:main.c        ****  *
   7:main.c        ****  * CONFIDENTIAL AND PROPRIETARY INFORMATION
   8:main.c        ****  * WHICH IS THE PROPERTY OF your company.
   9:main.c        ****  *
  10:main.c        ****  * ========================================
  11:main.c        **** */
  12:main.c        **** #include "project.h"
  13:main.c        **** #include <math.h>
  14:main.c        **** #include <stdio.h>
  15:main.c        **** #define AMPLITUDE 127
  16:main.c        **** #define OFFSET 127
  17:main.c        **** #define FREQUENCY 10
  18:main.c        **** #define PI 3.141592
  19:main.c        **** 
  20:main.c        **** int main(void)
  21:main.c        **** {
ARM GAS  C:\Users\danaukes\AppData\Local\Temp\ccOIoM8j.s 			page 2


  37              		.loc 1 21 0
  38              		.cfi_startproc
  39              		@ args = 0, pretend = 0, frame = 256
  40              		@ frame_needed = 0, uses_anonymous_args = 0
  41 0000 2DE9F04F 		push	{r4, r5, r6, r7, r8, r9, r10, fp, lr}
  42              		.cfi_def_cfa_offset 36
  43              		.cfi_offset 4, -36
  44              		.cfi_offset 5, -32
  45              		.cfi_offset 6, -28
  46              		.cfi_offset 7, -24
  47              		.cfi_offset 8, -20
  48              		.cfi_offset 9, -16
  49              		.cfi_offset 10, -12
  50              		.cfi_offset 11, -8
  51              		.cfi_offset 14, -4
  52 0004 C9B0     		sub	sp, sp, #292
  53              		.cfi_def_cfa_offset 328
  22:main.c        ****     CyGlobalIntEnable; /* Enable global interrupts. */
  54              		.loc 1 22 0
  55              		.syntax unified
  56              	@ 22 "main.c" 1
  57 0006 62B6     		CPSIE   i
  58              	@ 0 "" 2
  23:main.c        ****     myUSB_Start(0,myUSB_5V_OPERATION);
  59              		.loc 1 23 0
  60              		.thumb
  61              		.syntax unified
  62 0008 0121     		movs	r1, #1
  63 000a 0020     		movs	r0, #0
  64 000c FFF7FEFF 		bl	myUSB_Start
  65              	.LVL0:
  24:main.c        ****     myADC_SEQ_Start();
  66              		.loc 1 24 0
  67 0010 FFF7FEFF 		bl	myADC_SEQ_Start
  68              	.LVL1:
  25:main.c        ****     myDAC_Start();
  69              		.loc 1 25 0
  70 0014 FFF7FEFF 		bl	myDAC_Start
  71              	.LVL2:
  26:main.c        ****     
  27:main.c        ****     char message[255]="hi";
  72              		.loc 1 27 0
  73 0018 46F66813 		movw	r3, #26984
  74 001c 0893     		str	r3, [sp, #32]
  75 001e FB22     		movs	r2, #251
  76 0020 0021     		movs	r1, #0
  77 0022 09A8     		add	r0, sp, #36
  78 0024 FFF7FEFF 		bl	memset
  79              	.LVL3:
  28:main.c        ****     uint ii=0;
  80              		.loc 1 28 0
  81 0028 0024     		movs	r4, #0
  82              	.LVL4:
  83              	.L3:
  29:main.c        ****     double t=0;
  30:main.c        ****     double y=0;
  31:main.c        ****     uint16 value0=0;
ARM GAS  C:\Users\danaukes\AppData\Local\Temp\ccOIoM8j.s 			page 3


  32:main.c        ****     uint16 value1=0;
  33:main.c        ****     uint16 value2=0;
  34:main.c        ****     float faout=0;
  35:main.c        ****     float fvalue0=0;
  36:main.c        ****     float fvalue1=0;
  37:main.c        ****     float fvalue2=0;
  38:main.c        ****     /* Place your initialization/startup code here (e.g. MyInst_Start()) */
  39:main.c        **** 
  40:main.c        ****     for(;;)
  41:main.c        ****     {
  42:main.c        ****      
  43:main.c        ****     
  44:main.c        ****     t = ((float)ii)/1000;
  84              		.loc 1 44 0
  85 002a 2046     		mov	r0, r4
  86 002c FFF7FEFF 		bl	__aeabi_ui2f
  87              	.LVL5:
  88 0030 4D49     		ldr	r1, .L5+32
  89 0032 FFF7FEFF 		bl	__aeabi_fdiv
  90              	.LVL6:
  91 0036 FFF7FEFF 		bl	__aeabi_f2d
  92              	.LVL7:
  93 003a 0646     		mov	r6, r0
  94 003c 0F46     		mov	r7, r1
  95              	.LVL8:
  45:main.c        ****     y = AMPLITUDE*sin(2*PI*t*FREQUENCY)+OFFSET;
  96              		.loc 1 45 0
  97 003e 42A3     		adr	r3, .L5
  98 0040 D3E90023 		ldrd	r2, [r3]
  99 0044 FFF7FEFF 		bl	__aeabi_dmul
 100              	.LVL9:
 101 0048 0022     		movs	r2, #0
 102 004a 484B     		ldr	r3, .L5+36
 103 004c FFF7FEFF 		bl	__aeabi_dmul
 104              	.LVL10:
 105 0050 FFF7FEFF 		bl	sin
 106              	.LVL11:
 107 0054 3EA3     		adr	r3, .L5+8
 108 0056 D3E90023 		ldrd	r2, [r3]
 109 005a FFF7FEFF 		bl	__aeabi_dmul
 110              	.LVL12:
 111 005e 3CA3     		adr	r3, .L5+8
 112 0060 D3E90023 		ldrd	r2, [r3]
 113 0064 FFF7FEFF 		bl	__aeabi_dadd
 114              	.LVL13:
 115 0068 8046     		mov	r8, r0
 116 006a 8946     		mov	r9, r1
 117              	.LVL14:
  46:main.c        ****     
  47:main.c        ****     myDAC_SetValue((int)y);
 118              		.loc 1 47 0
 119 006c FFF7FEFF 		bl	__aeabi_d2iz
 120              	.LVL15:
 121 0070 C0B2     		uxtb	r0, r0
 122 0072 FFF7FEFF 		bl	myDAC_SetValue
 123              	.LVL16:
  48:main.c        ****     myADC_SEQ_StartConvert(); // Start ADC conversion
ARM GAS  C:\Users\danaukes\AppData\Local\Temp\ccOIoM8j.s 			page 4


 124              		.loc 1 48 0
 125 0076 FFF7FEFF 		bl	myADC_SEQ_StartConvert
 126              	.LVL17:
  49:main.c        ****     myADC_SEQ_IsEndConversion(myADC_SEQ_WAIT_FOR_RESULT);
 127              		.loc 1 49 0
 128 007a 0020     		movs	r0, #0
 129 007c FFF7FEFF 		bl	myADC_SEQ_IsEndConversion
 130              	.LVL18:
  50:main.c        **** // Wait until conversion is completed
  51:main.c        ****     value0=myADC_SEQ_GetResult16(0);
 131              		.loc 1 51 0
 132 0080 0020     		movs	r0, #0
 133 0082 FFF7FEFF 		bl	myADC_SEQ_GetResult16
 134              	.LVL19:
 135 0086 1FFA80FB 		uxth	fp, r0
 136              	.LVL20:
  52:main.c        ****     value1=myADC_SEQ_GetResult16(1);
 137              		.loc 1 52 0
 138 008a 0120     		movs	r0, #1
 139 008c FFF7FEFF 		bl	myADC_SEQ_GetResult16
 140              	.LVL21:
 141 0090 1FFA80FA 		uxth	r10, r0
 142              	.LVL22:
  53:main.c        ****     value2=myADC_SEQ_GetResult16(2);
 143              		.loc 1 53 0
 144 0094 0220     		movs	r0, #2
 145 0096 FFF7FEFF 		bl	myADC_SEQ_GetResult16
 146              	.LVL23:
 147 009a 85B2     		uxth	r5, r0
 148              	.LVL24:
  54:main.c        ****     faout = (float)y*1.024/255;
 149              		.loc 1 54 0
 150 009c 4046     		mov	r0, r8
 151 009e 4946     		mov	r1, r9
 152 00a0 FFF7FEFF 		bl	__aeabi_d2f
 153              	.LVL25:
 154 00a4 FFF7FEFF 		bl	__aeabi_f2d
 155              	.LVL26:
 156 00a8 2BA3     		adr	r3, .L5+16
 157 00aa D3E90023 		ldrd	r2, [r3]
 158 00ae FFF7FEFF 		bl	__aeabi_dmul
 159              	.LVL27:
 160 00b2 2BA3     		adr	r3, .L5+24
 161 00b4 D3E90023 		ldrd	r2, [r3]
 162 00b8 FFF7FEFF 		bl	__aeabi_ddiv
 163              	.LVL28:
 164 00bc FFF7FEFF 		bl	__aeabi_d2f
 165              	.LVL29:
 166 00c0 8046     		mov	r8, r0
 167              	.LVL30:
  55:main.c        ****     fvalue0 = (float)value0*5/4095;
 168              		.loc 1 55 0
 169 00c2 5846     		mov	r0, fp
 170              	.LVL31:
 171 00c4 FFF7FEFF 		bl	__aeabi_ui2f
 172              	.LVL32:
 173 00c8 2949     		ldr	r1, .L5+40
ARM GAS  C:\Users\danaukes\AppData\Local\Temp\ccOIoM8j.s 			page 5


 174 00ca FFF7FEFF 		bl	__aeabi_fmul
 175              	.LVL33:
 176 00ce 2949     		ldr	r1, .L5+44
 177 00d0 FFF7FEFF 		bl	__aeabi_fdiv
 178              	.LVL34:
 179 00d4 8146     		mov	r9, r0
 180              	.LVL35:
  56:main.c        ****     fvalue1 = (float)value1*5/4095;
 181              		.loc 1 56 0
 182 00d6 5046     		mov	r0, r10
 183              	.LVL36:
 184 00d8 FFF7FEFF 		bl	__aeabi_ui2f
 185              	.LVL37:
 186 00dc 2449     		ldr	r1, .L5+40
 187 00de FFF7FEFF 		bl	__aeabi_fmul
 188              	.LVL38:
 189 00e2 2449     		ldr	r1, .L5+44
 190 00e4 FFF7FEFF 		bl	__aeabi_fdiv
 191              	.LVL39:
 192 00e8 8246     		mov	r10, r0
 193              	.LVL40:
  57:main.c        ****     fvalue2 = (float)value2*5/4095;
 194              		.loc 1 57 0
 195 00ea 2846     		mov	r0, r5
 196              	.LVL41:
 197 00ec FFF7FEFF 		bl	__aeabi_ui2f
 198              	.LVL42:
 199 00f0 1F49     		ldr	r1, .L5+40
 200 00f2 FFF7FEFF 		bl	__aeabi_fmul
 201              	.LVL43:
 202 00f6 1F49     		ldr	r1, .L5+44
 203 00f8 FFF7FEFF 		bl	__aeabi_fdiv
 204              	.LVL44:
  58:main.c        ****     //value = 255;
  59:main.c        ****     //t=3.2;
  60:main.c        ****     sprintf(message,"%.3f,%.3f,%.3f,%.3f,%.3f\r\n",t,faout,fvalue0,fvalue1,fvalue2);
 205              		.loc 1 60 0
 206 00fc FFF7FEFF 		bl	__aeabi_f2d
 207              	.LVL45:
 208 0100 CDE90601 		strd	r0, [sp, #24]
 209 0104 5046     		mov	r0, r10
 210 0106 FFF7FEFF 		bl	__aeabi_f2d
 211              	.LVL46:
 212 010a CDE90401 		strd	r0, [sp, #16]
 213 010e 4846     		mov	r0, r9
 214 0110 FFF7FEFF 		bl	__aeabi_f2d
 215              	.LVL47:
 216 0114 CDE90201 		strd	r0, [sp, #8]
 217 0118 4046     		mov	r0, r8
 218 011a FFF7FEFF 		bl	__aeabi_f2d
 219              	.LVL48:
 220 011e CDE90001 		strd	r0, [sp]
 221 0122 3246     		mov	r2, r6
 222 0124 3B46     		mov	r3, r7
 223 0126 1449     		ldr	r1, .L5+48
 224 0128 08A8     		add	r0, sp, #32
 225 012a FFF7FEFF 		bl	sprintf
ARM GAS  C:\Users\danaukes\AppData\Local\Temp\ccOIoM8j.s 			page 6


 226              	.LVL49:
 227              	.L2:
  61:main.c        ****     //sprintf(message,"%d\n",value);
  62:main.c        ****     
  63:main.c        ****     //while (!myUSB_CDCIsReady());
  64:main.c        ****     //myUSB_PutString("\nvalue:");
  65:main.c        ****     while (!myUSB_CDCIsReady());
 228              		.loc 1 65 0 discriminator 1
 229 012e FFF7FEFF 		bl	myUSB_CDCIsReady
 230              	.LVL50:
 231 0132 0028     		cmp	r0, #0
 232 0134 FBD0     		beq	.L2
  66:main.c        ****     myUSB_PutString(message);
 233              		.loc 1 66 0
 234 0136 08A8     		add	r0, sp, #32
 235 0138 FFF7FEFF 		bl	myUSB_PutString
 236              	.LVL51:
  67:main.c        ****     ii++;
 237              		.loc 1 67 0
 238 013c 0134     		adds	r4, r4, #1
 239              	.LVL52:
  68:main.c        ****     CyDelay(1);
 240              		.loc 1 68 0
 241 013e 0120     		movs	r0, #1
 242 0140 FFF7FEFF 		bl	CyDelay
 243              	.LVL53:
  69:main.c        ****     }
 244              		.loc 1 69 0
 245 0144 71E7     		b	.L3
 246              	.L6:
 247 0146 00BF     		.align	3
 248              	.L5:
 249 0148 7A008BFC 		.word	-57999238
 250 014c FA211940 		.word	1075388922
 251 0150 00000000 		.word	0
 252 0154 00C05F40 		.word	1080016896
 253 0158 FCA9F1D2 		.word	-755914244
 254 015c 4D62F03F 		.word	1072718413
 255 0160 00000000 		.word	0
 256 0164 00E06F40 		.word	1081073664
 257 0168 00007A44 		.word	1148846080
 258 016c 00002440 		.word	1076101120
 259 0170 0000A040 		.word	1084227584
 260 0174 00F07F45 		.word	1166012416
 261 0178 00000000 		.word	.LC0
 262              		.cfi_endproc
 263              	.LFE64:
 264              		.size	main, .-main
 265              		.section	.rodata.str1.4,"aMS",%progbits,1
 266              		.align	2
 267              	.LC0:
 268 0000 252E3366 		.ascii	"%.3f,%.3f,%.3f,%.3f,%.3f\015\012\000"
 268      2C252E33 
 268      662C252E 
 268      33662C25 
 268      2E33662C 
 269              		.text
ARM GAS  C:\Users\danaukes\AppData\Local\Temp\ccOIoM8j.s 			page 7


 270              	.Letext0:
 271              		.file 2 "c:\\program files (x86)\\cypress\\psoc creator\\4.3\\psoc creator\\import\\gnu\\arm\\5.4.
 272              		.file 3 "c:\\program files (x86)\\cypress\\psoc creator\\4.3\\psoc creator\\import\\gnu\\arm\\5.4.
 273              		.file 4 "Generated_Source\\PSoC5/cytypes.h"
 274              		.file 5 "c:\\program files (x86)\\cypress\\psoc creator\\4.3\\psoc creator\\import\\gnu\\arm\\5.4.
 275              		.file 6 "Generated_Source\\PSoC5/myUSB.h"
 276              		.file 7 "Generated_Source\\PSoC5/myADC_SEQ.h"
 277              		.file 8 "Generated_Source\\PSoC5/myDAC.h"
 278              		.file 9 "c:\\program files (x86)\\cypress\\psoc creator\\4.3\\psoc creator\\import\\gnu\\arm\\5.4.
 279              		.file 10 "Generated_Source\\PSoC5/myUSB_cdc.h"
 280              		.file 11 "Generated_Source\\PSoC5/CyLib.h"
 281              		.file 12 "Generated_Source\\PSoC5/core_cm3.h"
 282              		.file 13 "c:\\program files (x86)\\cypress\\psoc creator\\4.3\\psoc creator\\import\\gnu\\arm\\5.4